target datalayout = "e-m:e-p270:32:32-p271:32:32-p272:64:64-i64:64-i128:128-f80:128-n8:16:32:64-S128"
target triple = "x86_64-pc-linux-gnu"

; Function Attrs: mustprogress nounwind uwtable
define linkonce_odr hidden void @_ZN2cv12cpu_baseline13accW_general_IhdEEvPKT_PT0_PKhiidi(ptr noundef %0, ptr noundef %1, ptr noundef %2, i32 noundef %3, i32 noundef %4, double noundef %5, i32 noundef %6) #2 comdat {
  %8 = alloca ptr, align 8
  %9 = alloca ptr, align 8
  %10 = alloca ptr, align 8
  %11 = alloca i32, align 4
  %12 = alloca i32, align 4
  %13 = alloca double, align 8
  %14 = alloca i32, align 4
  %15 = alloca double, align 8
  %16 = alloca double, align 8
  %17 = alloca i32, align 4
  %18 = alloca i32, align 4
  store ptr %0, ptr %8, align 8, !tbaa !3
  store ptr %1, ptr %9, align 8, !tbaa !29
  store ptr %2, ptr %10, align 8, !tbaa !3
  store i32 %3, ptr %11, align 4, !tbaa !10
  store i32 %4, ptr %12, align 4, !tbaa !10
  store double %5, ptr %13, align 8, !tbaa !31
  store i32 %6, ptr %14, align 4, !tbaa !10
  call void @llvm.lifetime.start.p0(i64 8, ptr %15) #4
  %19 = load double, ptr %13, align 8, !tbaa !31
  store double %19, ptr %15, align 8, !tbaa !31
  call void @llvm.lifetime.start.p0(i64 8, ptr %16) #4
  %20 = load double, ptr %15, align 8, !tbaa !31
  %21 = fsub double 1.000000e+00, %20
  store double %21, ptr %16, align 8, !tbaa !31
  call void @llvm.lifetime.start.p0(i64 4, ptr %17) #4
  %22 = load i32, ptr %14, align 4, !tbaa !10
  store i32 %22, ptr %17, align 4, !tbaa !10
  %23 = load ptr, ptr %10, align 8, !tbaa !3
  %24 = icmp ne ptr %23, null
  br i1 %24, label %58, label %25

25:                                               ; preds = %7
  %26 = load i32, ptr %12, align 4, !tbaa !10
  %27 = load i32, ptr %11, align 4, !tbaa !10
  %28 = mul nsw i32 %27, %26
  store i32 %28, ptr %11, align 4, !tbaa !10
  br label %29

29:                                               ; preds = %54, %25
  %30 = load i32, ptr %17, align 4, !tbaa !10
  %31 = load i32, ptr %11, align 4, !tbaa !10
  %32 = icmp slt i32 %30, %31
  br i1 %32, label %33, label %57

33:                                               ; preds = %29
  %34 = load ptr, ptr %8, align 8, !tbaa !3
  %35 = load i32, ptr %17, align 4, !tbaa !10
  %36 = sext i32 %35 to i64
  %37 = getelementptr inbounds i8, ptr %34, i64 %36
  %38 = load i8, ptr %37, align 1, !tbaa !12
  %39 = zext i8 %38 to i32
  %40 = sitofp i32 %39 to double
  %41 = load double, ptr %15, align 8, !tbaa !31
  %42 = load ptr, ptr %9, align 8, !tbaa !29
  %43 = load i32, ptr %17, align 4, !tbaa !10
  %44 = sext i32 %43 to i64
  %45 = getelementptr inbounds double, ptr %42, i64 %44
  %46 = load double, ptr %45, align 8, !tbaa !31
  %47 = load double, ptr %16, align 8, !tbaa !31
  %48 = fmul double %46, %47
  %49 = call double @llvm.fmuladd.f64(double %40, double %41, double %48)
  %50 = load ptr, ptr %9, align 8, !tbaa !29
  %51 = load i32, ptr %17, align 4, !tbaa !10
  %52 = sext i32 %51 to i64
  %53 = getelementptr inbounds double, ptr %50, i64 %52
  store double %49, ptr %53, align 8, !tbaa !31
  br label %54

54:                                               ; preds = %33
  %55 = load i32, ptr %17, align 4, !tbaa !10
  %56 = add nsw i32 %55, 1
  store i32 %56, ptr %17, align 4, !tbaa !10
  br label %29, !llvm.loop !96

57:                                               ; preds = %29
  br label %126

58:                                               ; preds = %7
  %59 = load i32, ptr %17, align 4, !tbaa !10
  %60 = load i32, ptr %12, align 4, !tbaa !10
  %61 = mul nsw i32 %59, %60
  %62 = load ptr, ptr %8, align 8, !tbaa !3
  %63 = sext i32 %61 to i64
  %64 = getelementptr inbounds i8, ptr %62, i64 %63
  store ptr %64, ptr %8, align 8, !tbaa !3
  %65 = load i32, ptr %17, align 4, !tbaa !10
  %66 = load i32, ptr %12, align 4, !tbaa !10
  %67 = mul nsw i32 %65, %66
  %68 = load ptr, ptr %9, align 8, !tbaa !29
  %69 = sext i32 %67 to i64
  %70 = getelementptr inbounds double, ptr %68, i64 %69
  store ptr %70, ptr %9, align 8, !tbaa !29
  br label %71

71:                                               ; preds = %114, %58
  %72 = load i32, ptr %17, align 4, !tbaa !10
  %73 = load i32, ptr %11, align 4, !tbaa !10
  %74 = icmp slt i32 %72, %73
  br i1 %74, label %75, label %125

75:                                               ; preds = %71
  %76 = load ptr, ptr %10, align 8, !tbaa !3
  %77 = load i32, ptr %17, align 4, !tbaa !10
  %78 = sext i32 %77 to i64
  %79 = getelementptr inbounds i8, ptr %76, i64 %78
  %80 = load i8, ptr %79, align 1, !tbaa !12
  %81 = icmp ne i8 %80, 0
  br i1 %81, label %82, label %113

82:                                               ; preds = %75
  call void @llvm.lifetime.start.p0(i64 4, ptr %18) #4
  store i32 0, ptr %18, align 4, !tbaa !10
  br label %83

83:                                               ; preds = %109, %82
  %84 = load i32, ptr %18, align 4, !tbaa !10
  %85 = load i32, ptr %12, align 4, !tbaa !10
  %86 = icmp slt i32 %84, %85
  br i1 %86, label %88, label %87

87:                                               ; preds = %83
  call void @llvm.lifetime.end.p0(i64 4, ptr %18) #4
  br label %112

88:                                               ; preds = %83
  %89 = load ptr, ptr %8, align 8, !tbaa !3
  %90 = load i32, ptr %18, align 4, !tbaa !10
  %91 = sext i32 %90 to i64
  %92 = getelementptr inbounds i8, ptr %89, i64 %91
  %93 = load i8, ptr %92, align 1, !tbaa !12
  %94 = zext i8 %93 to i32
  %95 = sitofp i32 %94 to double
  %96 = load double, ptr %15, align 8, !tbaa !31
  %97 = load ptr, ptr %9, align 8, !tbaa !29
  %98 = load i32, ptr %18, align 4, !tbaa !10
  %99 = sext i32 %98 to i64
  %100 = getelementptr inbounds double, ptr %97, i64 %99
  %101 = load double, ptr %100, align 8, !tbaa !31
  %102 = load double, ptr %16, align 8, !tbaa !31
  %103 = fmul double %101, %102
  %104 = call double @llvm.fmuladd.f64(double %95, double %96, double %103)
  %105 = load ptr, ptr %9, align 8, !tbaa !29
  %106 = load i32, ptr %18, align 4, !tbaa !10
  %107 = sext i32 %106 to i64
  %108 = getelementptr inbounds double, ptr %105, i64 %107
  store double %104, ptr %108, align 8, !tbaa !31
  br label %109

109:                                              ; preds = %88
  %110 = load i32, ptr %18, align 4, !tbaa !10
  %111 = add nsw i32 %110, 1
  store i32 %111, ptr %18, align 4, !tbaa !10
  br label %83, !llvm.loop !97

112:                                              ; preds = %87
  br label %113

113:                                              ; preds = %112, %75
  br label %114

114:                                              ; preds = %113
  %115 = load i32, ptr %17, align 4, !tbaa !10
  %116 = add nsw i32 %115, 1
  store i32 %116, ptr %17, align 4, !tbaa !10
  %117 = load i32, ptr %12, align 4, !tbaa !10
  %118 = load ptr, ptr %8, align 8, !tbaa !3
  %119 = sext i32 %117 to i64
  %120 = getelementptr inbounds i8, ptr %118, i64 %119
  store ptr %120, ptr %8, align 8, !tbaa !3
  %121 = load i32, ptr %12, align 4, !tbaa !10
  %122 = load ptr, ptr %9, align 8, !tbaa !29
  %123 = sext i32 %121 to i64
  %124 = getelementptr inbounds double, ptr %122, i64 %123
  store ptr %124, ptr %9, align 8, !tbaa !29
  br label %71, !llvm.loop !98

125:                                              ; preds = %71
  br label %126

126:                                              ; preds = %125, %57
  call void @llvm.lifetime.end.p0(i64 4, ptr %17) #4
  call void @llvm.lifetime.end.p0(i64 8, ptr %16) #4
  call void @llvm.lifetime.end.p0(i64 8, ptr %15) #4
  ret void
}

; Function Attrs: mustprogress uwtable
define hidden void @_ZN2cv12cpu_baseline10accW_simd_EPKhPdS2_iid(ptr noundef %0, ptr noundef %1, ptr noundef %2, i32 noundef %3, i32 noundef %4, double noundef %5) #0 {
  %7 = alloca ptr, align 8
  %8 = alloca ptr, align 8
  %9 = alloca ptr, align 8
  %10 = alloca i32, align 4
  %11 = alloca i32, align 4
  %12 = alloca double, align 8
  %13 = alloca i32, align 4
  store ptr %0, ptr %7, align 8, !tbaa !3
  store ptr %1, ptr %8, align 8, !tbaa !29
  store ptr %2, ptr %9, align 8, !tbaa !3
  store i32 %3, ptr %10, align 4, !tbaa !10
  store i32 %4, ptr %11, align 4, !tbaa !10
  store double %5, ptr %12, align 8, !tbaa !31
  call void @llvm.lifetime.start.p0(i64 4, ptr %13) #4
  store i32 0, ptr %13, align 4, !tbaa !10
  %14 = load ptr, ptr %7, align 8, !tbaa !3
  %15 = load ptr, ptr %8, align 8, !tbaa !29
  %16 = load ptr, ptr %9, align 8, !tbaa !3
  %17 = load i32, ptr %10, align 4, !tbaa !10
  %18 = load i32, ptr %11, align 4, !tbaa !10
  %19 = load double, ptr %12, align 8, !tbaa !31
  %20 = load i32, ptr %13, align 4, !tbaa !10
  call void @_ZN2cv12cpu_baseline13accW_general_IhdEEvPKT_PT0_PKhiidi(ptr noundef %14, ptr noundef %15, ptr noundef %16, i32 noundef %17, i32 noundef %18, double noundef %19, i32 noundef %20)
  call void @llvm.lifetime.end.p0(i64 4, ptr %13) #4
  ret void
}

; Function Attrs: mustprogress uwtable
define hidden void @_ZN2cv10accW_8u64fEPKhPdS1_iid(ptr noundef %0, ptr noundef %1, ptr noundef %2, i32 noundef %3, i32 noundef %4, double noundef %5) #0 {
  %7 = alloca ptr, align 8
  %8 = alloca ptr, align 8
  %9 = alloca ptr, align 8
  %10 = alloca i32, align 4
  %11 = alloca i32, align 4
  %12 = alloca double, align 8
  store ptr %0, ptr %7, align 8, !tbaa !3
  store ptr %1, ptr %8, align 8, !tbaa !29
  store ptr %2, ptr %9, align 8, !tbaa !3
  store i32 %3, ptr %10, align 4, !tbaa !10
  store i32 %4, ptr %11, align 4, !tbaa !10
  store double %5, ptr %12, align 8, !tbaa !31
  %13 = load ptr, ptr %7, align 8, !tbaa !3
  %14 = load ptr, ptr %8, align 8, !tbaa !29
  %15 = load ptr, ptr %9, align 8, !tbaa !3
  %16 = load i32, ptr %10, align 4, !tbaa !10
  %17 = load i32, ptr %11, align 4, !tbaa !10
  %18 = load double, ptr %12, align 8, !tbaa !31
  call void @_ZN2cv12cpu_baseline10accW_simd_EPKhPdS2_iid(ptr noundef %13, ptr noundef %14, ptr noundef %15, i32 noundef %16, i32 noundef %17, double noundef %18)
  ret void
}